-----BEGIN CERTIFICATE-----
MIIFRjCCBC6gAwIBAgIGAXj/Gf7SMA0GCSqGSIb3DQEBCwUAMIGnMTgwNgYDVQQDDC9DaGFybGVz
IFByb3h5IENBICgyMyBBcHIgMjAyMSwgTWFjaW50b3NoLmxvY2FsKTElMCMGA1UECwwcaHR0cHM6
Ly9jaGFybGVzcHJveHkuY29tL3NzbDERMA8GA1UECgwIWEs3MiBMdGQxETAPBgNVBAcMCEF1Y2ts
YW5kMREwDwYDVQQIDAhBdWNrbGFuZDELMAkGA1UEBhMCTlowHhcNMjEwNDIyMTQxOTU3WhcNMjIw
NDIyMTQxOTU3WjCBpzE4MDYGA1UEAwwvQ2hhcmxlcyBQcm94eSBDQSAoMjMgQXByIDIwMjEsIE1h
Y2ludG9zaC5sb2NhbCkxJTAjBgNVBAsMHGh0dHBzOi8vY2hhcmxlc3Byb3h5LmNvbS9zc2wxETAP
BgNVBAoMCFhLNzIgTHRkMREwDwYDVQQHDAhBdWNrbGFuZDERMA8GA1UECAwIQXVja2xhbmQxCzAJ
BgNVBAYTAk5aMIIBIjANBgkqhkiG9w0BAQEFAAOCAQ8AMIIBCgKCAQEAuBzmAvgYghV0ruUSWcKv
0c14l3N0PRmIuGOGfXMWFgCz09qGcIwRyIQVApDf1RYDAXm6p/xX3WAg22brG2MlPl5D34r92ePz
siL+3KvOznojiu6z8VVVM8+KRS5HRVhMQJv2XI+vrBC8hZ6/oNr/oTyF7FQTJPe+bSaXpG5Uv7lP
DAt4xfXQsyLkJ0nG75AyTj7RN/uKCZE/Bi6GdHw1cDnIHmx/bYj7Vozty1OL4unFMTLe8+GqsLLB
y6aEwB5YLmUJhCh4vf3FQNuucTMh36WPOtl2qTM+7ZciUzxSXO8auVtxhlzEredWYmCcfjd1uF7O
JDDNX4VctSrSs3eLUQIDAQABo4IBdDCCAXAwDwYDVR0TAQH/BAUwAwEB/zCCASwGCWCGSAGG+EIB
DQSCAR0TggEZVGhpcyBSb290IGNlcnRpZmljYXRlIHdhcyBnZW5lcmF0ZWQgYnkgQ2hhcmxlcyBQ
cm94eSBmb3IgU1NMIFByb3h5aW5nLiBJZiB0aGlzIGNlcnRpZmljYXRlIGlzIHBhcnQgb2YgYSBj
ZXJ0aWZpY2F0ZSBjaGFpbiwgdGhpcyBtZWFucyB0aGF0IHlvdSdyZSBicm93c2luZyB0aHJvdWdo
IENoYXJsZXMgUHJveHkgd2l0aCBTU0wgUHJveHlpbmcgZW5hYmxlZCBmb3IgdGhpcyB3ZWJzaXRl
LiBQbGVhc2Ugc2VlIGh0dHA6Ly9jaGFybGVzcHJveHkuY29tL3NzbCBmb3IgbW9yZSBpbmZvcm1h
dGlvbi4wDgYDVR0PAQH/BAQDAgIEMB0GA1UdDgQWBBTITC309deZQm5Acb3IKNtmb5DfdjANBgkq
hkiG9w0BAQsFAAOCAQEAMV3V4aBztOXiMW+bybxn4GUwJfYLfIpXHczz1tDuyt0k3tymEPZPx4tS
jchsMOglj4gfKyr7jGU6mrqEkblu3B/bqc8Hz+zTrPoMFB3XCDAX94HklpscF3Kf8ABIUouYGQjx
cFXhoFd81/LSj6ksKlgsZhEkoDpRp5TDAZ2FC0jIcmUFeW7metL6d/yyk8F4zG0eoz+ezeLUfWa3
pZZBKAV4Vj9PVcXBH+yUsixIzlvm10+jNtJlNb73PtGzElJ/XuAe8k8jfr8HgBr1g55YAq7YJgFg
cO6gFM8Rh4cjmEHlv2gDknh/07ESQWll72a9FTnBt6VRA8iCgsjd+iKuMg==
-----END CERTIFICATE-----
Certificate:
    Data:
        Version: 3 (0x2)
        Serial Number: 1619187597010 (0x178ff19fed2)
    Signature Algorithm: sha256WithRSAEncryption
        Issuer: CN=Charles Proxy CA (23 Apr 2021, Macintosh.local), OU=https://charlesproxy.com/ssl, O=XK72 Ltd, L=Auckland, ST=Auckland, C=NZ
        Validity
            Not Before: Apr 22 14:19:57 2021 GMT
            Not After : Apr 22 14:19:57 2022 GMT
        Subject: CN=Charles Proxy CA (23 Apr 2021, Macintosh.local), OU=https://charlesproxy.com/ssl, O=XK72 Ltd, L=Auckland, ST=Auckland, C=NZ
        Subject Public Key Info:
            Public Key Algorithm: rsaEncryption
                Public-Key: (2048 bit)
                Modulus:
                    00:b8:1c:e6:02:f8:18:82:15:74:ae:e5:12:59:c2:
                    af:d1:cd:78:97:73:74:3d:19:88:b8:63:86:7d:73:
                    16:16:00:b3:d3:da:86:70:8c:11:c8:84:15:02:90:
                    df:d5:16:03:01:79:ba:a7:fc:57:dd:60:20:db:66:
                    eb:1b:63:25:3e:5e:43:df:8a:fd:d9:e3:f3:b2:22:
                    fe:dc:ab:ce:ce:7a:23:8a:ee:b3:f1:55:55:33:cf:
                    8a:45:2e:47:45:58:4c:40:9b:f6:5c:8f:af:ac:10:
                    bc:85:9e:bf:a0:da:ff:a1:3c:85:ec:54:13:24:f7:
                    be:6d:26:97:a4:6e:54:bf:b9:4f:0c:0b:78:c5:f5:
                    d0:b3:22:e4:27:49:c6:ef:90:32:4e:3e:d1:37:fb:
                    8a:09:91:3f:06:2e:86:74:7c:35:70:39:c8:1e:6c:
                    7f:6d:88:fb:56:8c:ed:cb:53:8b:e2:e9:c5:31:32:
                    de:f3:e1:aa:b0:b2:c1:cb:a6:84:c0:1e:58:2e:65:
                    09:84:28:78:bd:fd:c5:40:db:ae:71:33:21:df:a5:
                    8f:3a:d9:76:a9:33:3e:ed:97:22:53:3c:52:5c:ef:
                    1a:b9:5b:71:86:5c:c4:ad:e7:56:62:60:9c:7e:37:
                    75:b8:5e:ce:24:30:cd:5f:85:5c:b5:2a:d2:b3:77:
                    8b:51
                Exponent: 65537 (0x10001)
        X509v3 extensions:
            X509v3 Basic Constraints: critical
                CA:TRUE
            Netscape Comment: 
                ....This Root certificate was generated by Charles Proxy for SSL Proxying. If this certificate is part of a certificate chain, this means that you're browsing through Charles Proxy with SSL Proxying enabled for this website. Please see http://charlesproxy.com/ssl for more information.
            X509v3 Key Usage: critical
                Certificate Sign
            X509v3 Subject Key Identifier: 
                C8:4C:2D:F4:F5:D7:99:42:6E:40:71:BD:C8:28:DB:66:6F:90:DF:76
    Signature Algorithm: sha256WithRSAEncryption
         31:5d:d5:e1:a0:73:b4:e5:e2:31:6f:9b:c9:bc:67:e0:65:30:
         25:f6:0b:7c:8a:57:1d:cc:f3:d6:d0:ee:ca:dd:24:de:dc:a6:
         10:f6:4f:c7:8b:52:8d:c8:6c:30:e8:25:8f:88:1f:2b:2a:fb:
         8c:65:3a:9a:ba:84:91:b9:6e:dc:1f:db:a9:cf:07:cf:ec:d3:
         ac:fa:0c:14:1d:d7:08:30:17:f7:81:e4:96:9b:1c:17:72:9f:
         f0:00:48:52:8b:98:19:08:f1:70:55:e1:a0:57:7c:d7:f2:d2:
         8f:a9:2c:2a:58:2c:66:11:24:a0:3a:51:a7:94:c3:01:9d:85:
         0b:48:c8:72:65:05:79:6e:e6:7a:d2:fa:77:fc:b2:93:c1:78:
         cc:6d:1e:a3:3f:9e:cd:e2:d4:7d:66:b7:a5:96:41:28:05:78:
         56:3f:4f:55:c5:c1:1f:ec:94:b2:2c:48:ce:5b:e6:d7:4f:a3:
         36:d2:65:35:be:f7:3e:d1:b3:12:52:7f:5e:e0:1e:f2:4f:23:
         7e:bf:07:80:1a:f5:83:9e:58:02:ae:d8:26:01:60:70:ee:a0:
         14:cf:11:87:87:23:98:41:e5:bf:68:03:92:78:7f:d3:b1:12:
         41:69:65:ef:66:bd:15:39:c1:b7:a5:51:03:c8:82:82:c8:dd:
         fa:22:ae:32
